; Function Attrs: nounwind uwtable
define internal fastcc nonnull ptr @minmax_multi_get_strategy_procinfo(ptr noundef readonly captures(none) %0, i16 noundef zeroext %1, i32 noundef %2, i16 noundef zeroext %3) unnamed_addr #0 {
  %5 = getelementptr inbounds nuw i8, ptr %0, i64 40
  %6 = zext i16 %1 to i64
  %7 = add nsw i64 %6, -1
  %8 = getelementptr inbounds [0 x ptr], ptr %5, i64 0, i64 %7
  %9 = load ptr, ptr %8, align 8
  %10 = getelementptr inbounds nuw i8, ptr %9, i64 8
  %11 = load ptr, ptr %10, align 8
  %12 = getelementptr inbounds nuw i8, ptr %11, i64 52
  %13 = load i32, ptr %12, align 4
  %.not = icmp eq i32 %13, %2
  br i1 %.not, label %19, label %.preheader

.preheader:                                       ; preds = %4
  %14 = getelementptr i8, ptr %11, i64 16
  br label %15

15:                                               ; preds = %.preheader, %15
  %indvars.iv = phi i64 [ 1, %.preheader ], [ %indvars.iv.next, %15 ]
  %16 = mul nuw nsw i64 %indvars.iv, 48
  %17 = getelementptr i8, ptr %14, i64 %16
  store i32 0, ptr %17, align 8
  %indvars.iv.next = add nuw nsw i64 %indvars.iv, 1
  %exitcond.not = icmp eq i64 %indvars.iv.next, 6
  br i1 %exitcond.not, label %18, label %15, !llvm.loop !14

18:                                               ; preds = %15
  store i32 %2, ptr %12, align 4
  br label %19

19:                                               ; preds = %18, %4
  %20 = getelementptr inbounds nuw i8, ptr %11, i64 56
  %21 = zext i16 %3 to i32
  %22 = add nsw i32 %21, -1
  %23 = sext i32 %22 to i64
  %24 = getelementptr inbounds [5 x %struct.FmgrInfo], ptr %20, i64 0, i64 %23
  %25 = getelementptr inbounds nuw i8, ptr %24, i64 8
  %26 = load i32, ptr %25, align 8
  %27 = icmp eq i32 %26, 0
  br i1 %27, label %28, label %58

28:                                               ; preds = %19
  %29 = getelementptr inbounds nuw i8, ptr %0, i64 8
  %30 = load ptr, ptr %29, align 8
  %31 = getelementptr inbounds nuw i8, ptr %30, i64 360
  %32 = load ptr, ptr %31, align 8
  %33 = getelementptr inbounds i32, ptr %32, i64 %7
  %34 = load i32, ptr %33, align 4
  %35 = getelementptr inbounds nuw i8, ptr %0, i64 16
  %36 = load ptr, ptr %35, align 8
  %37 = load i32, ptr %36, align 8
  %38 = sext i32 %37 to i64
  %39 = shl nsw i64 %38, 4
  %40 = getelementptr i8, ptr %36, i64 %39
  %41 = zext i32 %34 to i64
  %.idx = mul nsw i64 %7, 100
  %42 = getelementptr i8, ptr %40, i64 92
  %43 = getelementptr i8, ptr %42, i64 %.idx
  %44 = load i32, ptr %43, align 4
  %45 = zext i32 %44 to i64
  %46 = zext i32 %2 to i64
  %47 = sext i16 %3 to i64
  %48 = tail call ptr @SearchSysCache4(i32 noundef 4, i64 noundef %41, i64 noundef %45, i64 noundef %46, i64 noundef %47) #12
  %.not35 = icmp eq ptr %48, null
  br i1 %.not35, label %49, label %53

49:                                               ; preds = %28
  %50 = tail call zeroext i1 @errstart_cold(i32 noundef 21, ptr noundef null) #13
  tail call void @llvm.assume(i1 %50)
  %51 = load i32, ptr %43, align 4
  %52 = tail call i32 (ptr, ...) @errmsg_internal(ptr noundef nonnull @.str.13, i32 noundef %21, i32 noundef %51, i32 noundef %2, i32 noundef %34) #12
  tail call void @errfinish(ptr noundef nonnull @.str.1, i32 noundef 2947, ptr noundef nonnull @__func__.minmax_multi_get_strategy_procinfo) #12
  unreachable

53:                                               ; preds = %28
  %54 = tail call i64 @SysCacheGetAttrNotNull(i32 noundef 4, ptr noundef nonnull %48, i16 noundef signext 7) #12
  %55 = trunc i64 %54 to i32
  tail call void @ReleaseSysCache(ptr noundef nonnull %48) #12
  %56 = tail call i32 @get_opcode(i32 noundef %55) #12
  %57 = load ptr, ptr %0, align 8
  tail call void @fmgr_info_cxt(i32 noundef %56, ptr noundef nonnull %24, ptr noundef %57) #12
  br label %58

58:                                               ; preds = %53, %19
  ret ptr %24
}